target datalayout = "e-m:e-p270:32:32-p271:32:32-p272:64:64-i64:64-i128:128-f80:128-n8:16:32:64-S128"
target triple = "x86_64-unknown-linux-gnu"

%"struct.std::atomic.4" = type { %"struct.std::__atomic_base.5" }
%"struct.std::__atomic_base.5" = type { i8 }
%struct.grpc_slice_buffer = type { ptr, ptr, i64, i64, i64, [7 x %struct.grpc_slice] }
%struct.grpc_slice = type { ptr, %"union.grpc_slice::grpc_slice_data" }
%"union.grpc_slice::grpc_slice_data" = type { %"struct.grpc_slice::grpc_slice_data::grpc_slice_refcounted", [8 x i8] }
%"struct.grpc_slice::grpc_slice_data::grpc_slice_refcounted" = type { i64, ptr }
%"struct.std::atomic" = type { %"struct.std::__atomic_base" }
%"struct.std::__atomic_base" = type { i64 }
%"class.std::__cxx11::basic_string" = type { %"struct.std::__cxx11::basic_string<char>::_Alloc_hider", i64, %union.anon.3 }
%"struct.std::__cxx11::basic_string<char>::_Alloc_hider" = type { ptr }
%union.anon.3 = type { i64, [8 x i8] }
%"class.grpc_core::MemoryOwner" = type { %"class.grpc_event_engine::experimental::MemoryAllocator" }
%"class.grpc_event_engine::experimental::MemoryAllocator" = type { %"class.std::shared_ptr" }
%"class.std::shared_ptr" = type { %"class.std::__shared_ptr" }
%"class.std::__shared_ptr" = type { ptr, %"class.std::__shared_count" }
%"class.std::__shared_count" = type { ptr }
%"class.grpc_event_engine::experimental::MemoryAllocator::Reservation" = type { %"class.std::shared_ptr", i64 }
%"struct.(anonymous namespace)::grpc_tcp" = type <{ %struct.grpc_endpoint, ptr, i32, i32, double, double, %"class.grpc_core::RefCount", i64, i32, i32, %struct.grpc_slice_buffer, %"class.absl::lts_20230802::Mutex", ptr, ptr, i64, ptr, ptr, ptr, ptr, %struct.grpc_closure, %struct.grpc_closure, %struct.grpc_closure, %"class.std::__cxx11::basic_string", %"class.std::__cxx11::basic_string", %"class.grpc_core::MemoryOwner", %"class.grpc_event_engine::experimental::MemoryAllocator::Reservation", %"class.grpc_core::TracedBufferList", ptr, i32, i32, i64, %"class.grpc_core::TcpZerocopySendCtx", ptr, i32, i8, i8, i8, i8, i8, [7 x i8] }>
%struct.grpc_endpoint = type { ptr }
%"class.grpc_core::RefCount" = type { %"struct.std::atomic" }
%"class.absl::lts_20230802::Mutex" = type { %"struct.std::atomic" }
%struct.grpc_closure = type { %union.anon, ptr, ptr, %union.anon.2 }
%union.anon = type { ptr }
%union.anon.2 = type { i64 }
%"class.grpc_core::TracedBufferList" = type { %"class.absl::lts_20230802::Mutex", ptr, ptr }
%"class.grpc_core::TcpZerocopySendCtx" = type <{ ptr, ptr, i32, i32, %"class.absl::lts_20230802::Mutex", i32, %"struct.std::atomic.4", i8, [2 x i8], i64, %"class.std::unordered_map", i8, i8, i8, [5 x i8] }>
%"class.std::unordered_map" = type { %"class.std::_Hashtable" }
%"class.std::_Hashtable" = type { ptr, i64, %"struct.std::__detail::_Hash_node_base", i64, %"struct.std::__detail::_Prime_rehash_policy", ptr }
%"struct.std::__detail::_Hash_node_base" = type { ptr }
%"struct.std::__detail::_Prime_rehash_policy" = type { float, i64 }

@.str = private unnamed_addr constant [119 x i8] c"generated/home/dtcxzyw/WorkSpace/Projects/compilers/llvm-opt-benchmark/bench/grpc/grpc/src/core/lib/iomgr/tcp_posix.cc\00", align 1
@.str.6 = private unnamed_addr constant [22 x i8] c"ep->vtable == &vtable\00", align 1

; Function Attrs: mustprogress uwtable
define noundef i32 @_Z11grpc_tcp_fdP13grpc_endpoint(ptr noundef %ep) #4 {
entry:
  %ep.addr = alloca ptr, align 8
  %tcp = alloca ptr, align 8
  store ptr %ep, ptr %ep.addr, align 8
  %0 = load ptr, ptr %ep.addr, align 8
  store ptr %0, ptr %tcp, align 8
  br label %do.body

do.body:                                          ; preds = %entry
  %1 = load ptr, ptr %ep.addr, align 8
  %vtable = getelementptr inbounds %struct.grpc_endpoint, ptr %1, i32 0, i32 0
  %2 = load ptr, ptr %vtable, align 8
  %cmp = icmp eq ptr %2, @_ZL6vtable
  %lnot = xor i1 %cmp, true
  br i1 %lnot, label %if.then, label %if.end

if.then:                                          ; preds = %do.body
  call void @gpr_assertion_failed(ptr noundef @.str, i32 noundef 2036, ptr noundef @.str.6) #18
  unreachable

if.end:                                           ; preds = %do.body
  br label %do.end

do.end:                                           ; preds = %if.end
  %3 = load ptr, ptr %tcp, align 8
  %em_fd = getelementptr inbounds %"struct.(anonymous namespace)::grpc_tcp", ptr %3, i32 0, i32 1
  %4 = load ptr, ptr %em_fd, align 8
  %call = call noundef i32 @_Z18grpc_fd_wrapped_fdP7grpc_fd(ptr noundef %4)
  ret i32 %call
}