; Function Attrs: mustprogress uwtable
define noundef i32 @_Z11grpc_tcp_fdP13grpc_endpoint(ptr nocapture noundef readonly %ep) local_unnamed_addr #6 {
entry:
  %0 = load ptr, ptr %ep, align 8
  %cmp.not = icmp eq ptr %0, @_ZL6vtable
  br i1 %cmp.not, label %do.end, label %if.then

if.then:                                          ; preds = %entry
  tail call void @gpr_assertion_failed(ptr noundef nonnull @.str, i32 noundef 2036, ptr noundef nonnull @.str.6) #26
  unreachable

do.end:                                           ; preds = %entry
  %em_fd = getelementptr inbounds i8, ptr %ep, i64 8
  %1 = load ptr, ptr %em_fd, align 8
  %call = tail call noundef i32 @_Z18grpc_fd_wrapped_fdP7grpc_fd(ptr noundef %1)
  ret i32 %call
}